target datalayout = "e-m:e-p270:32:32-p271:32:32-p272:64:64-i64:64-i128:128-f80:128-n8:16:32:64-S128"
target triple = "x86_64-pc-linux-gnu"

%struct.FunctionCallInfoBaseData = type { ptr, ptr, ptr, i32, i8, i16, [0 x %struct.NullableDatum] }
%struct.NullableDatum = type { i64, i8 }
%struct._FuncCandidateList = type { ptr, i32, i32, i32, i32, i32, i32, ptr, [0 x i32] }

@Mode = external global i32, align 4
@.str.1 = private unnamed_addr constant [10 x i8] c"regproc.c\00", align 1
@.str.9 = private unnamed_addr constant [46 x i8] c"regoper values must be OIDs in bootstrap mode\00", align 1
@__func__.regoperin = private unnamed_addr constant [10 x i8] c"regoperin\00", align 1
@.str.10 = private unnamed_addr constant [28 x i8] c"operator does not exist: %s\00", align 1
@.str.11 = private unnamed_addr constant [32 x i8] c"more than one operator named %s\00", align 1
@.str.39 = private unnamed_addr constant [11 x i8] c"0123456789\00", align 1

; Function Attrs: inlinehint nounwind uwtable
define internal i32 @DatumGetObjectId(i64 noundef %0) #2 {
  %2 = alloca i64, align 8
  store i64 %0, ptr %2, align 8
  %3 = load i64, ptr %2, align 8
  %4 = trunc i64 %3 to i32
  ret i32 %4
}

; Function Attrs: inlinehint nounwind uwtable
define internal ptr @DatumGetPointer(i64 noundef %0) #2 {
  %2 = alloca i64, align 8
  store i64 %0, ptr %2, align 8
  %3 = load i64, ptr %2, align 8
  %4 = inttoptr i64 %3 to ptr
  ret ptr %4
}

; Function Attrs: inlinehint nounwind uwtable
define internal i64 @ObjectIdGetDatum(i32 noundef %0) #2 {
  %2 = alloca i32, align 4
  store i32 %0, ptr %2, align 4
  %3 = load i32, ptr %2, align 4
  %4 = zext i32 %3 to i64
  ret i64 %4
}

; Function Attrs: nounwind uwtable
define internal zeroext i1 @parseNumericOid(ptr noundef %0, ptr noundef %1, ptr noundef %2) #0 {
  %4 = alloca i1, align 1
  %5 = alloca ptr, align 8
  %6 = alloca ptr, align 8
  %7 = alloca ptr, align 8
  %8 = alloca i64, align 8
  store ptr %0, ptr %5, align 8
  store ptr %1, ptr %6, align 8
  store ptr %2, ptr %7, align 8
  %9 = load ptr, ptr %5, align 8
  %10 = getelementptr inbounds i8, ptr %9, i64 0
  %11 = load i8, ptr %10, align 1
  %12 = sext i8 %11 to i32
  %13 = icmp sge i32 %12, 48
  br i1 %13, label %14, label %33

14:                                               ; preds = %3
  %15 = load ptr, ptr %5, align 8
  %16 = getelementptr inbounds i8, ptr %15, i64 0
  %17 = load i8, ptr %16, align 1
  %18 = sext i8 %17 to i32
  %19 = icmp sle i32 %18, 57
  br i1 %19, label %20, label %33

20:                                               ; preds = %14
  %21 = load ptr, ptr %5, align 8
  %22 = call i64 @strspn(ptr noundef %21, ptr noundef @.str.39) #10
  %23 = load ptr, ptr %5, align 8
  %24 = call i64 @strlen(ptr noundef %23) #10
  %25 = icmp eq i64 %22, %24
  br i1 %25, label %26, label %33

26:                                               ; preds = %20
  call void @llvm.lifetime.start.p0(i64 8, ptr %8) #8
  %27 = load ptr, ptr %5, align 8
  %28 = load ptr, ptr %7, align 8
  %29 = call zeroext i1 @DirectInputFunctionCallSafe(ptr noundef @oidin, ptr noundef %27, i32 noundef 0, i32 noundef -1, ptr noundef %28, ptr noundef %8)
  %30 = load i64, ptr %8, align 8
  %31 = call i32 @DatumGetObjectId(i64 noundef %30)
  %32 = load ptr, ptr %6, align 8
  store i32 %31, ptr %32, align 4
  store i1 true, ptr %4, align 1
  call void @llvm.lifetime.end.p0(i64 8, ptr %8) #8
  br label %35

33:                                               ; preds = %20, %14, %3
  %34 = load ptr, ptr %6, align 8
  store i32 0, ptr %34, align 4
  store i1 false, ptr %4, align 1
  br label %35

35:                                               ; preds = %33, %26
  %36 = load i1, ptr %4, align 1
  ret i1 %36
}

; Function Attrs: inlinehint nounwind uwtable
define internal ptr @DatumGetCString(i64 noundef %0) #2 {
  %2 = alloca i64, align 8
  store i64 %0, ptr %2, align 8
  %3 = load i64, ptr %2, align 8
  %4 = call ptr @DatumGetPointer(i64 noundef %3)
  ret ptr %4
}

; Function Attrs: nounwind uwtable
define dso_local i64 @regoperin(ptr noundef %0) #0 {
  %2 = alloca i64, align 8
  %3 = alloca ptr, align 8
  %4 = alloca ptr, align 8
  %5 = alloca ptr, align 8
  %6 = alloca i32, align 4
  %7 = alloca ptr, align 8
  %8 = alloca ptr, align 8
  %9 = alloca i32, align 4
  %10 = alloca ptr, align 8
  %11 = alloca ptr, align 8
  store ptr %0, ptr %3, align 8
  call void @llvm.lifetime.start.p0(i64 8, ptr %4) #8
  %12 = load ptr, ptr %3, align 8
  %13 = getelementptr inbounds nuw %struct.FunctionCallInfoBaseData, ptr %12, i32 0, i32 6
  %14 = getelementptr inbounds [0 x %struct.NullableDatum], ptr %13, i64 0, i64 0
  %15 = getelementptr inbounds nuw %struct.NullableDatum, ptr %14, i32 0, i32 0
  %16 = load i64, ptr %15, align 8
  %17 = call ptr @DatumGetCString(i64 noundef %16)
  store ptr %17, ptr %4, align 8
  call void @llvm.lifetime.start.p0(i64 8, ptr %5) #8
  %18 = load ptr, ptr %3, align 8
  %19 = getelementptr inbounds nuw %struct.FunctionCallInfoBaseData, ptr %18, i32 0, i32 1
  %20 = load ptr, ptr %19, align 8
  store ptr %20, ptr %5, align 8
  call void @llvm.lifetime.start.p0(i64 4, ptr %6) #8
  call void @llvm.lifetime.start.p0(i64 8, ptr %7) #8
  call void @llvm.lifetime.start.p0(i64 8, ptr %8) #8
  %21 = load ptr, ptr %4, align 8
  %22 = load ptr, ptr %5, align 8
  %23 = call zeroext i1 @parseNumericOid(ptr noundef %21, ptr noundef %6, ptr noundef %22)
  br i1 %23, label %24, label %27

24:                                               ; preds = %1
  %25 = load i32, ptr %6, align 4
  %26 = call i64 @ObjectIdGetDatum(i32 noundef %25)
  store i64 %26, ptr %2, align 8
  store i32 1, ptr %9, align 4
  br label %102

27:                                               ; preds = %1
  %28 = load i32, ptr @Mode, align 4
  %29 = icmp eq i32 %28, 0
  br i1 %29, label %30, label %41

30:                                               ; preds = %27
  br label %31

31:                                               ; preds = %30
  br i1 true, label %32, label %34

32:                                               ; preds = %31
  %33 = call zeroext i1 @errstart_cold(i32 noundef 21, ptr noundef null) #9
  br i1 %33, label %36, label %38

34:                                               ; preds = %31
  %35 = call zeroext i1 @errstart(i32 noundef 21, ptr noundef null)
  br i1 %35, label %36, label %38

36:                                               ; preds = %34, %32
  %37 = call i32 (ptr, ...) @errmsg_internal(ptr noundef @.str.9)
  call void @errfinish(ptr noundef @.str.1, i32 noundef 494, ptr noundef @__func__.regoperin)
  br label %38

38:                                               ; preds = %36, %34, %32
  unreachable

39:                                               ; No predecessors!
  br label %40

40:                                               ; preds = %39
  br label %41

41:                                               ; preds = %40, %27
  %42 = load ptr, ptr %4, align 8
  %43 = load ptr, ptr %5, align 8
  %44 = call ptr @stringToQualifiedNameList(ptr noundef %42, ptr noundef %43)
  store ptr %44, ptr %7, align 8
  %45 = load ptr, ptr %7, align 8
  %46 = icmp eq ptr %45, null
  br i1 %46, label %47, label %53

47:                                               ; preds = %41
  br label %48

48:                                               ; preds = %47
  %49 = load ptr, ptr %3, align 8
  %50 = getelementptr inbounds nuw %struct.FunctionCallInfoBaseData, ptr %49, i32 0, i32 4
  store i8 1, ptr %50, align 4
  store i64 0, ptr %2, align 8
  store i32 1, ptr %9, align 4
  br label %102

51:                                               ; No predecessors!
  br label %52

52:                                               ; preds = %51
  br label %53

53:                                               ; preds = %52, %41
  %54 = load ptr, ptr %7, align 8
  %55 = call ptr @OpernameGetCandidates(ptr noundef %54, i8 noundef signext 0, i1 noundef zeroext true)
  store ptr %55, ptr %8, align 8
  %56 = load ptr, ptr %8, align 8
  %57 = icmp eq ptr %56, null
  br i1 %57, label %58, label %74

58:                                               ; preds = %53
  br label %59

59:                                               ; preds = %58
  br label %60

60:                                               ; preds = %59
  call void @llvm.lifetime.start.p0(i64 8, ptr %10) #8
  %61 = load ptr, ptr %5, align 8
  store ptr %61, ptr %10, align 8
  %62 = load ptr, ptr %10, align 8
  %63 = call zeroext i1 @errsave_start(ptr noundef %62, ptr noundef null)
  br i1 %63, label %64, label %69

64:                                               ; preds = %60
  %65 = call i32 @errcode(i32 noundef 52461700)
  %66 = load ptr, ptr %4, align 8
  %67 = call i32 (ptr, ...) @errmsg(ptr noundef @.str.10, ptr noundef %66)
  %68 = load ptr, ptr %10, align 8
  call void @errsave_finish(ptr noundef %68, ptr noundef @.str.1, i32 noundef 509, ptr noundef @__func__.regoperin)
  br label %69

69:                                               ; preds = %64, %60
  call void @llvm.lifetime.end.p0(i64 8, ptr %10) #8
  br label %70

70:                                               ; preds = %69
  br label %71

71:                                               ; preds = %70
  store i64 0, ptr %2, align 8
  store i32 1, ptr %9, align 4
  br label %102

72:                                               ; No predecessors!
  br label %73

73:                                               ; preds = %72
  br label %96

74:                                               ; preds = %53
  %75 = load ptr, ptr %8, align 8
  %76 = getelementptr inbounds nuw %struct._FuncCandidateList, ptr %75, i32 0, i32 0
  %77 = load ptr, ptr %76, align 8
  %78 = icmp ne ptr %77, null
  br i1 %78, label %79, label %95

79:                                               ; preds = %74
  br label %80

80:                                               ; preds = %79
  br label %81

81:                                               ; preds = %80
  call void @llvm.lifetime.start.p0(i64 8, ptr %11) #8
  %82 = load ptr, ptr %5, align 8
  store ptr %82, ptr %11, align 8
  %83 = load ptr, ptr %11, align 8
  %84 = call zeroext i1 @errsave_start(ptr noundef %83, ptr noundef null)
  br i1 %84, label %85, label %90

85:                                               ; preds = %81
  %86 = call i32 @errcode(i32 noundef 84439172)
  %87 = load ptr, ptr %4, align 8
  %88 = call i32 (ptr, ...) @errmsg(ptr noundef @.str.11, ptr noundef %87)
  %89 = load ptr, ptr %11, align 8
  call void @errsave_finish(ptr noundef %89, ptr noundef @.str.1, i32 noundef 514, ptr noundef @__func__.regoperin)
  br label %90

90:                                               ; preds = %85, %81
  call void @llvm.lifetime.end.p0(i64 8, ptr %11) #8
  br label %91

91:                                               ; preds = %90
  br label %92

92:                                               ; preds = %91
  store i64 0, ptr %2, align 8
  store i32 1, ptr %9, align 4
  br label %102

93:                                               ; No predecessors!
  br label %94

94:                                               ; preds = %93
  br label %95

95:                                               ; preds = %94, %74
  br label %96

96:                                               ; preds = %95, %73
  %97 = load ptr, ptr %8, align 8
  %98 = getelementptr inbounds nuw %struct._FuncCandidateList, ptr %97, i32 0, i32 2
  %99 = load i32, ptr %98, align 4
  store i32 %99, ptr %6, align 4
  %100 = load i32, ptr %6, align 4
  %101 = call i64 @ObjectIdGetDatum(i32 noundef %100)
  store i64 %101, ptr %2, align 8
  store i32 1, ptr %9, align 4
  br label %102

102:                                              ; preds = %96, %92, %71, %48, %24
  call void @llvm.lifetime.end.p0(i64 8, ptr %8) #8
  call void @llvm.lifetime.end.p0(i64 8, ptr %7) #8
  call void @llvm.lifetime.end.p0(i64 4, ptr %6) #8
  call void @llvm.lifetime.end.p0(i64 8, ptr %5) #8
  call void @llvm.lifetime.end.p0(i64 8, ptr %4) #8
  %103 = load i64, ptr %2, align 8
  ret i64 %103
}