; Function Attrs: nounwind uwtable
define dso_local range(i64 0, 4294967296) i64 @regoperin(ptr noundef captures(none) %0) #0 {
  %2 = alloca i64, align 8
  %3 = getelementptr inbounds nuw i8, ptr %0, i64 32
  %4 = load i64, ptr %3, align 8
  %5 = inttoptr i64 %4 to ptr
  %6 = getelementptr inbounds nuw i8, ptr %0, i64 8
  %7 = load ptr, ptr %6, align 8
  %8 = load i8, ptr %5, align 1
  %9 = add i8 %8, -48
  %or.cond.i = icmp ult i8 %9, 10
  br i1 %or.cond.i, label %10, label %18

10:                                               ; preds = %1
  %11 = tail call i64 @strspn(ptr noundef nonnull %5, ptr noundef nonnull @.str.39) #8
  %12 = tail call i64 @strlen(ptr noundef nonnull dereferenceable(1) %5) #8
  %13 = icmp eq i64 %11, %12
  br i1 %13, label %14, label %18

14:                                               ; preds = %10
  call void @llvm.lifetime.start.p0(i64 8, ptr nonnull %2) #9
  %15 = call zeroext i1 @DirectInputFunctionCallSafe(ptr noundef nonnull @oidin, ptr noundef nonnull %5, i32 noundef 0, i32 noundef -1, ptr noundef %7, ptr noundef nonnull %2) #9
  %16 = load i64, ptr %2, align 8
  call void @llvm.lifetime.end.p0(i64 8, ptr nonnull %2) #9
  %17 = and i64 %16, 4294967295
  br label %48

18:                                               ; preds = %10, %1
  %19 = load i32, ptr @Mode, align 4
  %20 = icmp eq i32 %19, 0
  br i1 %20, label %21, label %24

21:                                               ; preds = %18
  %22 = tail call zeroext i1 @errstart_cold(i32 noundef 21, ptr noundef null) #10
  tail call void @llvm.assume(i1 %22)
  %23 = tail call i32 (ptr, ...) @errmsg_internal(ptr noundef nonnull @.str.9) #9
  tail call void @errfinish(ptr noundef nonnull @.str.1, i32 noundef 494, ptr noundef nonnull @__func__.regoperin) #9
  unreachable

24:                                               ; preds = %18
  %25 = tail call ptr @stringToQualifiedNameList(ptr noundef nonnull %5, ptr noundef %7)
  %26 = icmp eq ptr %25, null
  br i1 %26, label %27, label %29

27:                                               ; preds = %24
  %28 = getelementptr inbounds nuw i8, ptr %0, i64 28
  store i8 1, ptr %28, align 4
  br label %48

29:                                               ; preds = %24
  %30 = tail call ptr @OpernameGetCandidates(ptr noundef nonnull %25, i8 noundef signext 0, i1 noundef zeroext true) #9
  %31 = icmp eq ptr %30, null
  br i1 %31, label %32, label %37

32:                                               ; preds = %29
  %33 = tail call zeroext i1 @errsave_start(ptr noundef %7, ptr noundef null) #9
  br i1 %33, label %34, label %48

34:                                               ; preds = %32
  %35 = tail call i32 @errcode(i32 noundef 52461700) #9
  %36 = tail call i32 (ptr, ...) @errmsg(ptr noundef nonnull @.str.10, ptr noundef nonnull %5) #9
  tail call void @errsave_finish(ptr noundef %7, ptr noundef nonnull @.str.1, i32 noundef 509, ptr noundef nonnull @__func__.regoperin) #9
  br label %48

37:                                               ; preds = %29
  %38 = load ptr, ptr %30, align 8
  %.not = icmp eq ptr %38, null
  br i1 %.not, label %44, label %39

39:                                               ; preds = %37
  %40 = tail call zeroext i1 @errsave_start(ptr noundef %7, ptr noundef null) #9
  br i1 %40, label %41, label %48

41:                                               ; preds = %39
  %42 = tail call i32 @errcode(i32 noundef 84439172) #9
  %43 = tail call i32 (ptr, ...) @errmsg(ptr noundef nonnull @.str.11, ptr noundef nonnull %5) #9
  tail call void @errsave_finish(ptr noundef %7, ptr noundef nonnull @.str.1, i32 noundef 514, ptr noundef nonnull @__func__.regoperin) #9
  br label %48

44:                                               ; preds = %37
  %45 = getelementptr inbounds nuw i8, ptr %30, i64 12
  %46 = load i32, ptr %45, align 4
  %47 = zext i32 %46 to i64
  br label %48

48:                                               ; preds = %39, %41, %32, %34, %44, %27, %14
  %.0 = phi i64 [ %17, %14 ], [ 0, %27 ], [ %47, %44 ], [ 0, %34 ], [ 0, %32 ], [ 0, %41 ], [ 0, %39 ]
  ret i64 %.0
}